target datalayout = "e-m:e-p270:32:32-p271:32:32-p272:64:64-i64:64-i128:128-f80:128-n8:16:32:64-S128"
target triple = "x86_64-pc-linux-gnu"

%struct.DdNode = type { i32, i32, ptr, %union.anon, i64 }
%union.anon = type { %struct.DdChildren }
%struct.DdChildren = type { ptr, ptr }

; Function Attrs: nounwind uwtable
define internal i32 @cuddEstimateCofactorSimple(ptr noundef %0, i32 noundef %1) #0 {
  %3 = alloca i32, align 4
  %4 = alloca ptr, align 8
  %5 = alloca i32, align 4
  %6 = alloca i32, align 4
  %7 = alloca i32, align 4
  store ptr %0, ptr %4, align 8
  store i32 %1, ptr %5, align 4
  %8 = load ptr, ptr %4, align 8
  %9 = getelementptr inbounds %struct.DdNode, ptr %8, i32 0, i32 2
  %10 = load ptr, ptr %9, align 8
  %11 = ptrtoint ptr %10 to i64
  %12 = and i64 %11, 1
  %13 = trunc i64 %12 to i32
  %14 = icmp ne i32 %13, 0
  br i1 %14, label %15, label %16

15:                                               ; preds = %2
  store i32 0, ptr %3, align 4
  br label %58

16:                                               ; preds = %2
  %17 = load ptr, ptr %4, align 8
  %18 = getelementptr inbounds %struct.DdNode, ptr %17, i32 0, i32 2
  %19 = load ptr, ptr %18, align 8
  %20 = ptrtoint ptr %19 to i64
  %21 = xor i64 %20, 1
  %22 = inttoptr i64 %21 to ptr
  %23 = load ptr, ptr %4, align 8
  %24 = getelementptr inbounds %struct.DdNode, ptr %23, i32 0, i32 2
  store ptr %22, ptr %24, align 8
  %25 = load ptr, ptr %4, align 8
  %26 = getelementptr inbounds %struct.DdNode, ptr %25, i32 0, i32 0
  %27 = load i32, ptr %26, align 8
  %28 = icmp eq i32 %27, 2147483647
  br i1 %28, label %29, label %30

29:                                               ; preds = %16
  store i32 1, ptr %3, align 4
  br label %58

30:                                               ; preds = %16
  %31 = load ptr, ptr %4, align 8
  %32 = getelementptr inbounds %struct.DdNode, ptr %31, i32 0, i32 3
  %33 = getelementptr inbounds %struct.DdChildren, ptr %32, i32 0, i32 0
  %34 = load ptr, ptr %33, align 8
  %35 = load i32, ptr %5, align 4
  %36 = call i32 @cuddEstimateCofactorSimple(ptr noundef %34, i32 noundef %35)
  store i32 %36, ptr %6, align 4
  %37 = load ptr, ptr %4, align 8
  %38 = getelementptr inbounds %struct.DdNode, ptr %37, i32 0, i32 0
  %39 = load i32, ptr %38, align 8
  %40 = load i32, ptr %5, align 4
  %41 = icmp eq i32 %39, %40
  br i1 %41, label %42, label %44

42:                                               ; preds = %30
  %43 = load i32, ptr %6, align 4
  store i32 %43, ptr %3, align 4
  br label %58

44:                                               ; preds = %30
  %45 = load ptr, ptr %4, align 8
  %46 = getelementptr inbounds %struct.DdNode, ptr %45, i32 0, i32 3
  %47 = getelementptr inbounds %struct.DdChildren, ptr %46, i32 0, i32 1
  %48 = load ptr, ptr %47, align 8
  %49 = ptrtoint ptr %48 to i64
  %50 = and i64 %49, -2
  %51 = inttoptr i64 %50 to ptr
  %52 = load i32, ptr %5, align 4
  %53 = call i32 @cuddEstimateCofactorSimple(ptr noundef %51, i32 noundef %52)
  store i32 %53, ptr %7, align 4
  %54 = load i32, ptr %6, align 4
  %55 = add nsw i32 1, %54
  %56 = load i32, ptr %7, align 4
  %57 = add nsw i32 %55, %56
  store i32 %57, ptr %3, align 4
  br label %58

58:                                               ; preds = %44, %42, %29, %15
  %59 = load i32, ptr %3, align 4
  ret i32 %59
}