; Function Attrs: nofree nosync nounwind memory(readwrite, inaccessiblemem: none) uwtable
define internal fastcc i32 @cuddEstimateCofactorSimple(ptr noundef captures(none) %0, i32 noundef %1) unnamed_addr #6 {
  %3 = getelementptr inbounds nuw i8, ptr %0, i64 8
  %4 = load ptr, ptr %3, align 8
  %5 = ptrtoint ptr %4 to i64
  %6 = and i64 %5, 1
  %.not15 = icmp eq i64 %6, 0
  br i1 %.not15, label %.lr.ph, label %._crit_edge

.lr.ph:                                           ; preds = %2, %tailrecurse
  %7 = phi i64 [ %28, %tailrecurse ], [ %5, %2 ]
  %8 = phi ptr [ %26, %tailrecurse ], [ %3, %2 ]
  %.tr17 = phi ptr [ %23, %tailrecurse ], [ %0, %2 ]
  %accumulator.tr16 = phi i32 [ %25, %tailrecurse ], [ 0, %2 ]
  %9 = or disjoint i64 %7, 1
  %10 = inttoptr i64 %9 to ptr
  store ptr %10, ptr %8, align 8
  %11 = load i32, ptr %.tr17, align 8
  %12 = icmp eq i32 %11, 2147483647
  br i1 %12, label %._crit_edge.loopexit, label %13

13:                                               ; preds = %.lr.ph
  %14 = getelementptr inbounds nuw i8, ptr %.tr17, i64 16
  %15 = load ptr, ptr %14, align 8
  %16 = tail call fastcc i32 @cuddEstimateCofactorSimple(ptr noundef %15, i32 noundef %1)
  %17 = load i32, ptr %.tr17, align 8
  %18 = icmp eq i32 %17, %1
  br i1 %18, label %._crit_edge.loopexit, label %tailrecurse

tailrecurse:                                      ; preds = %13
  %19 = getelementptr inbounds nuw i8, ptr %.tr17, i64 24
  %20 = load ptr, ptr %19, align 8
  %21 = ptrtoint ptr %20 to i64
  %22 = and i64 %21, -2
  %23 = inttoptr i64 %22 to ptr
  %24 = add i32 %accumulator.tr16, 1
  %25 = add i32 %24, %16
  %26 = getelementptr inbounds nuw i8, ptr %23, i64 8
  %27 = load ptr, ptr %26, align 8
  %28 = ptrtoint ptr %27 to i64
  %29 = and i64 %28, 1
  %.not = icmp eq i64 %29, 0
  br i1 %.not, label %.lr.ph, label %._crit_edge.loopexit

._crit_edge.loopexit:                             ; preds = %13, %.lr.ph, %tailrecurse
  %accumulator.tr.lcssa.ph = phi i32 [ %25, %tailrecurse ], [ %accumulator.tr16, %.lr.ph ], [ %accumulator.tr16, %13 ]
  %.0.ph = phi i32 [ 0, %tailrecurse ], [ 1, %.lr.ph ], [ %16, %13 ]
  %30 = add nsw i32 %.0.ph, %accumulator.tr.lcssa.ph
  br label %._crit_edge

._crit_edge:                                      ; preds = %._crit_edge.loopexit, %2
  %accumulator.ret.tr = phi i32 [ 0, %2 ], [ %30, %._crit_edge.loopexit ]
  ret i32 %accumulator.ret.tr
}